; Function Attrs: mustprogress nounwind uwtable
define void @_ZN14duckdb_parquet11OffsetIndexD1Ev(ptr noundef nonnull align 8 captures(none) dereferenceable(57) initializes((0, 8)) %0) unnamed_addr #0 align 2 personality ptr @__gxx_personality_v0 {
  store ptr getelementptr inbounds nuw inrange(-48, 40) (i8, ptr @_ZTVN14duckdb_parquet11OffsetIndexE, i64 48), ptr %0, align 8, !tbaa !22
  %2 = getelementptr inbounds nuw i8, ptr %0, i64 32
  %3 = load ptr, ptr %2, align 8, !tbaa !75
  %.not.i.i.i.i = icmp eq ptr %3, null
  br i1 %.not.i.i.i.i, label %_ZNSt6vectorIlSaIlEED2Ev.exit.i, label %4

4:                                                ; preds = %1
  tail call void @_ZdlPv(ptr noundef nonnull %3) #28
  br label %_ZNSt6vectorIlSaIlEED2Ev.exit.i

_ZNSt6vectorIlSaIlEED2Ev.exit.i:                  ; preds = %4, %1
  %5 = getelementptr inbounds nuw i8, ptr %0, i64 8
  %6 = load ptr, ptr %5, align 8, !tbaa !710
  %7 = getelementptr inbounds nuw i8, ptr %0, i64 16
  %8 = load ptr, ptr %7, align 8, !tbaa !713
  %.not4.i.i.i.i.i = icmp eq ptr %6, %8
  br i1 %.not4.i.i.i.i.i, label %_ZSt8_DestroyIPN14duckdb_parquet12PageLocationES1_EvT_S3_RSaIT0_E.exit.i.i, label %.lr.ph.i.i.i.i.i

.lr.ph.i.i.i.i.i:                                 ; preds = %_ZNSt6vectorIlSaIlEED2Ev.exit.i, %.lr.ph.i.i.i.i.i
  %.05.i.i.i.i.i = phi ptr [ %11, %.lr.ph.i.i.i.i.i ], [ %6, %_ZNSt6vectorIlSaIlEED2Ev.exit.i ]
  %9 = load ptr, ptr %.05.i.i.i.i.i, align 8, !tbaa !22
  %10 = load ptr, ptr %9, align 8
  tail call void %10(ptr noundef nonnull align 8 dereferenceable(32) %.05.i.i.i.i.i) #26
  %11 = getelementptr inbounds nuw i8, ptr %.05.i.i.i.i.i, i64 32
  %.not.i.i.i.i.i = icmp eq ptr %11, %8
  br i1 %.not.i.i.i.i.i, label %_ZSt8_DestroyIPN14duckdb_parquet12PageLocationES1_EvT_S3_RSaIT0_E.exitthread-pre-split.i.i, label %.lr.ph.i.i.i.i.i, !llvm.loop !714

_ZSt8_DestroyIPN14duckdb_parquet12PageLocationES1_EvT_S3_RSaIT0_E.exitthread-pre-split.i.i: ; preds = %.lr.ph.i.i.i.i.i
  %.pr.i.i = load ptr, ptr %5, align 8, !tbaa !710
  br label %_ZSt8_DestroyIPN14duckdb_parquet12PageLocationES1_EvT_S3_RSaIT0_E.exit.i.i

_ZSt8_DestroyIPN14duckdb_parquet12PageLocationES1_EvT_S3_RSaIT0_E.exit.i.i: ; preds = %_ZSt8_DestroyIPN14duckdb_parquet12PageLocationES1_EvT_S3_RSaIT0_E.exitthread-pre-split.i.i, %_ZNSt6vectorIlSaIlEED2Ev.exit.i
  %12 = phi ptr [ %.pr.i.i, %_ZSt8_DestroyIPN14duckdb_parquet12PageLocationES1_EvT_S3_RSaIT0_E.exitthread-pre-split.i.i ], [ %6, %_ZNSt6vectorIlSaIlEED2Ev.exit.i ]
  %.not.i.i.i2.i = icmp eq ptr %12, null
  br i1 %.not.i.i.i2.i, label %_ZN14duckdb_parquet11OffsetIndexD2Ev.exit, label %13

13:                                               ; preds = %_ZSt8_DestroyIPN14duckdb_parquet12PageLocationES1_EvT_S3_RSaIT0_E.exit.i.i
  tail call void @_ZdlPv(ptr noundef nonnull %12) #28
  br label %_ZN14duckdb_parquet11OffsetIndexD2Ev.exit

_ZN14duckdb_parquet11OffsetIndexD2Ev.exit:        ; preds = %_ZSt8_DestroyIPN14duckdb_parquet12PageLocationES1_EvT_S3_RSaIT0_E.exit.i.i, %13
  ret void
}